target datalayout = "e-m:e-p270:32:32-p271:32:32-p272:64:64-i64:64-i128:128-f80:128-n8:16:32:64-S128"
target triple = "x86_64-unknown-linux-gnu"

%"class.icu_75::MaybeStackArray" = type <{ ptr, i32, i8, [40 x i8], [3 x i8] }>
%"class.icu_75::CharString" = type { %"class.icu_75::MaybeStackArray", i32, [4 x i8] }
%"class.icu_75::CharStringByteSink" = type { %"class.icu_75::ByteSink", ptr }
%"class.icu_75::ByteSink" = type { ptr }
%"class.icu_75::Locale" = type <{ %"class.icu_75::UObject", [12 x i8], [6 x i8], [4 x i8], [2 x i8], i32, [4 x i8], ptr, [157 x i8], [3 x i8], ptr, i8, [7 x i8] }>
%"class.icu_75::UObject" = type { ptr }

@_ZN6icu_7515MaybeStackArrayIcLi40EEC1Ev = weak_odr unnamed_addr alias void (ptr), ptr @_ZN6icu_7515MaybeStackArrayIcLi40EEC2Ev
@_ZN6icu_7515MaybeStackArrayIcLi40EED1Ev = weak_odr unnamed_addr alias void (ptr), ptr @_ZN6icu_7515MaybeStackArrayIcLi40EED2Ev

; Function Attrs: mustprogress nounwind uwtable
define weak_odr noundef ptr @_ZNK6icu_7515MaybeStackArrayIcLi40EE8getAliasEv(ptr noundef nonnull align 8 dereferenceable(53) %this) #0 comdat align 2 {
entry:
  %this.addr = alloca ptr, align 8
  store ptr %this, ptr %this.addr, align 8
  %this1 = load ptr, ptr %this.addr, align 8
  %ptr = getelementptr inbounds %"class.icu_75::MaybeStackArray", ptr %this1, i32 0, i32 0
  %0 = load ptr, ptr %ptr, align 8
  ret ptr %0
}

; Function Attrs: mustprogress nounwind uwtable
define weak_odr noundef nonnull align 1 dereferenceable(1) ptr @_ZN6icu_7515MaybeStackArrayIcLi40EEixEl(ptr noundef nonnull align 8 dereferenceable(53) %this, i64 noundef %i) #0 comdat align 2 {
entry:
  %this.addr = alloca ptr, align 8
  %i.addr = alloca i64, align 8
  store ptr %this, ptr %this.addr, align 8
  store i64 %i, ptr %i.addr, align 8
  %this1 = load ptr, ptr %this.addr, align 8
  %ptr = getelementptr inbounds %"class.icu_75::MaybeStackArray", ptr %this1, i32 0, i32 0
  %0 = load ptr, ptr %ptr, align 8
  %1 = load i64, ptr %i.addr, align 8
  %arrayidx = getelementptr inbounds i8, ptr %0, i64 %1
  ret ptr %arrayidx
}

; Function Attrs: mustprogress nounwind uwtable
define linkonce_odr void @_ZN6icu_7510CharStringD2Ev(ptr noundef nonnull align 8 dereferenceable(60) %this) unnamed_addr #0 comdat align 2 {
entry:
  %this.addr = alloca ptr, align 8
  store ptr %this, ptr %this.addr, align 8
  %this1 = load ptr, ptr %this.addr, align 8
  %buffer = getelementptr inbounds %"class.icu_75::CharString", ptr %this1, i32 0, i32 0
  call void @_ZN6icu_7515MaybeStackArrayIcLi40EED1Ev(ptr noundef nonnull align 8 dereferenceable(53) %buffer) #10
  ret void
}

; Function Attrs: mustprogress nounwind uwtable
define linkonce_odr noundef signext i8 @_ZNK6icu_756Locale7isBogusEv(ptr noundef nonnull align 8 dereferenceable(217) %this) #0 comdat align 2 {
entry:
  %this.addr = alloca ptr, align 8
  store ptr %this, ptr %this.addr, align 8
  %this1 = load ptr, ptr %this.addr, align 8
  %fIsBogus = getelementptr inbounds %"class.icu_75::Locale", ptr %this1, i32 0, i32 11
  %0 = load i8, ptr %fIsBogus, align 8
  ret i8 %0
}

; Function Attrs: mustprogress nounwind uwtable
define linkonce_odr noundef ptr @_ZN6icu_7510CharString4dataEv(ptr noundef nonnull align 8 dereferenceable(60) %this) #0 comdat align 2 {
entry:
  %this.addr = alloca ptr, align 8
  store ptr %this, ptr %this.addr, align 8
  %this1 = load ptr, ptr %this.addr, align 8
  %buffer = getelementptr inbounds %"class.icu_75::CharString", ptr %this1, i32 0, i32 0
  %call = call noundef ptr @_ZNK6icu_7515MaybeStackArrayIcLi40EE8getAliasEv(ptr noundef nonnull align 8 dereferenceable(53) %buffer)
  ret ptr %call
}

; Function Attrs: mustprogress uwtable
define linkonce_odr void @_ZN6icu_7510CharStringC2Ev(ptr noundef nonnull align 8 dereferenceable(60) %this) unnamed_addr #1 comdat align 2 {
entry:
  %this.addr = alloca ptr, align 8
  store ptr %this, ptr %this.addr, align 8
  %this1 = load ptr, ptr %this.addr, align 8
  %buffer = getelementptr inbounds %"class.icu_75::CharString", ptr %this1, i32 0, i32 0
  call void @_ZN6icu_7515MaybeStackArrayIcLi40EEC1Ev(ptr noundef nonnull align 8 dereferenceable(53) %buffer)
  %len = getelementptr inbounds %"class.icu_75::CharString", ptr %this1, i32 0, i32 1
  store i32 0, ptr %len, align 8
  %buffer2 = getelementptr inbounds %"class.icu_75::CharString", ptr %this1, i32 0, i32 0
  %call = call noundef nonnull align 1 dereferenceable(1) ptr @_ZN6icu_7515MaybeStackArrayIcLi40EEixEl(ptr noundef nonnull align 8 dereferenceable(53) %buffer2, i64 noundef 0)
  store i8 0, ptr %call, align 1
  ret void
}

; Function Attrs: mustprogress nounwind uwtable
define internal noundef signext i8 @_ZL9U_FAILURE10UErrorCode(i32 noundef %code) #0 {
entry:
  %code.addr = alloca i32, align 4
  store i32 %code, ptr %code.addr, align 4
  %0 = load i32, ptr %code.addr, align 4
  %cmp = icmp sgt i32 %0, 0
  %conv = zext i1 %cmp to i8
  ret i8 %conv
}

; Function Attrs: mustprogress uwtable
define void @_ZN6icu_756Locale15minimizeSubtagsEbR10UErrorCode(ptr noundef nonnull align 8 dereferenceable(217) %this, i1 noundef zeroext %favorScript, ptr noundef nonnull align 4 dereferenceable(4) %status) #1 align 2 personality ptr @__gxx_personality_v0 {
entry:
  %this.addr = alloca ptr, align 8
  %favorScript.addr = alloca i8, align 1
  %status.addr = alloca ptr, align 8
  %minimizedLocaleID = alloca %"class.icu_75::CharString", align 8
  %sink = alloca %"class.icu_75::CharStringByteSink", align 8
  %exn.slot = alloca ptr, align 8
  %ehselector.slot = alloca i32, align 4
  %cleanup.dest.slot = alloca i32, align 4
  store ptr %this, ptr %this.addr, align 8
  %frombool = zext i1 %favorScript to i8
  store i8 %frombool, ptr %favorScript.addr, align 1
  store ptr %status, ptr %status.addr, align 8
  %this1 = load ptr, ptr %this.addr, align 8
  %0 = load ptr, ptr %status.addr, align 8
  %1 = load i32, ptr %0, align 4
  %call = call noundef signext i8 @_ZL9U_FAILURE10UErrorCode(i32 noundef %1)
  %tobool = icmp ne i8 %call, 0
  br i1 %tobool, label %if.then, label %if.end

if.then:                                          ; preds = %entry
  br label %cleanup.cont

if.end:                                           ; preds = %entry
  call void @_ZN6icu_7510CharStringC2Ev(ptr noundef nonnull align 8 dereferenceable(60) %minimizedLocaleID)
  invoke void @_ZN6icu_7518CharStringByteSinkC1EPNS_10CharStringE(ptr noundef nonnull align 8 dereferenceable(16) %sink, ptr noundef %minimizedLocaleID)
          to label %invoke.cont unwind label %lpad

invoke.cont:                                      ; preds = %if.end
  %fullName = getelementptr inbounds %"class.icu_75::Locale", ptr %this1, i32 0, i32 7
  %2 = load ptr, ptr %fullName, align 8
  %3 = load i8, ptr %favorScript.addr, align 1
  %tobool2 = trunc i8 %3 to i1
  %4 = load ptr, ptr %status.addr, align 8
  invoke void @ulocimp_minimizeSubtags_75(ptr noundef %2, ptr noundef nonnull align 8 dereferenceable(8) %sink, i1 noundef zeroext %tobool2, ptr noundef %4)
          to label %invoke.cont4 unwind label %lpad3

invoke.cont4:                                     ; preds = %invoke.cont
  call void @_ZN6icu_7518CharStringByteSinkD1Ev(ptr noundef nonnull align 8 dereferenceable(16) %sink) #10
  %5 = load ptr, ptr %status.addr, align 8
  %6 = load i32, ptr %5, align 4
  %call6 = invoke noundef signext i8 @_ZL9U_FAILURE10UErrorCode(i32 noundef %6)
          to label %invoke.cont5 unwind label %lpad

invoke.cont5:                                     ; preds = %invoke.cont4
  %tobool7 = icmp ne i8 %call6, 0
  br i1 %tobool7, label %if.then8, label %if.end9

if.then8:                                         ; preds = %invoke.cont5
  store i32 1, ptr %cleanup.dest.slot, align 4
  br label %cleanup

lpad:                                             ; preds = %invoke.cont12, %invoke.cont10, %if.end9, %invoke.cont4, %if.end
  %7 = landingpad { ptr, i32 }
          cleanup
  %8 = extractvalue { ptr, i32 } %7, 0
  store ptr %8, ptr %exn.slot, align 8
  %9 = extractvalue { ptr, i32 } %7, 1
  store i32 %9, ptr %ehselector.slot, align 4
  br label %ehcleanup

lpad3:                                            ; preds = %invoke.cont
  %10 = landingpad { ptr, i32 }
          cleanup
  %11 = extractvalue { ptr, i32 } %10, 0
  store ptr %11, ptr %exn.slot, align 8
  %12 = extractvalue { ptr, i32 } %10, 1
  store i32 %12, ptr %ehselector.slot, align 4
  call void @_ZN6icu_7518CharStringByteSinkD1Ev(ptr noundef nonnull align 8 dereferenceable(16) %sink) #10
  br label %ehcleanup

if.end9:                                          ; preds = %invoke.cont5
  %call11 = invoke noundef ptr @_ZN6icu_7510CharString4dataEv(ptr noundef nonnull align 8 dereferenceable(60) %minimizedLocaleID)
          to label %invoke.cont10 unwind label %lpad

invoke.cont10:                                    ; preds = %if.end9
  %call13 = invoke noundef nonnull align 8 dereferenceable(217) ptr @_ZN6icu_756Locale4initEPKca(ptr noundef nonnull align 8 dereferenceable(217) %this1, ptr noundef %call11, i8 noundef signext 0)
          to label %invoke.cont12 unwind label %lpad

invoke.cont12:                                    ; preds = %invoke.cont10
  %call15 = invoke noundef signext i8 @_ZNK6icu_756Locale7isBogusEv(ptr noundef nonnull align 8 dereferenceable(217) %this1)
          to label %invoke.cont14 unwind label %lpad

invoke.cont14:                                    ; preds = %invoke.cont12
  %tobool16 = icmp ne i8 %call15, 0
  br i1 %tobool16, label %if.then17, label %if.end18

if.then17:                                        ; preds = %invoke.cont14
  %13 = load ptr, ptr %status.addr, align 8
  store i32 1, ptr %13, align 4
  br label %if.end18

if.end18:                                         ; preds = %if.then17, %invoke.cont14
  store i32 0, ptr %cleanup.dest.slot, align 4
  br label %cleanup

cleanup:                                          ; preds = %if.end18, %if.then8
  call void @_ZN6icu_7510CharStringD2Ev(ptr noundef nonnull align 8 dereferenceable(60) %minimizedLocaleID) #10
  %cleanup.dest = load i32, ptr %cleanup.dest.slot, align 4
  switch i32 %cleanup.dest, label %unreachable [
    i32 0, label %cleanup.cont
    i32 1, label %cleanup.cont
  ]

cleanup.cont:                                     ; preds = %cleanup, %cleanup, %if.then
  ret void

ehcleanup:                                        ; preds = %lpad3, %lpad
  call void @_ZN6icu_7510CharStringD2Ev(ptr noundef nonnull align 8 dereferenceable(60) %minimizedLocaleID) #10
  br label %eh.resume

eh.resume:                                        ; preds = %ehcleanup
  %exn = load ptr, ptr %exn.slot, align 8
  %sel = load i32, ptr %ehselector.slot, align 4
  %lpad.val = insertvalue { ptr, i32 } poison, ptr %exn, 0
  %lpad.val19 = insertvalue { ptr, i32 } %lpad.val, i32 %sel, 1
  resume { ptr, i32 } %lpad.val19

unreachable:                                      ; preds = %cleanup
  unreachable
}