; Function Attrs: mustprogress uwtable
define void @_ZN6icu_756Locale15minimizeSubtagsEbR10UErrorCode(ptr noundef nonnull align 8 dereferenceable(217) %this, i1 noundef zeroext %favorScript, ptr noundef nonnull align 4 dereferenceable(4) %status) local_unnamed_addr #1 align 2 personality ptr @__gxx_personality_v0 {
entry:
  %minimizedLocaleID = alloca %"class.icu_75::CharString", align 8
  %sink = alloca %"class.icu_75::CharStringByteSink", align 8
  %0 = load i32, ptr %status, align 4
  %cmp.i = icmp slt i32 %0, 1
  br i1 %cmp.i, label %if.end, label %cleanup.cont

if.end:                                           ; preds = %entry
  call void @_ZN6icu_7515MaybeStackArrayIcLi40EEC1Ev(ptr noundef nonnull align 8 dereferenceable(53) %minimizedLocaleID)
  %len.i = getelementptr inbounds i8, ptr %minimizedLocaleID, i64 56
  store i32 0, ptr %len.i, align 8
  %1 = load ptr, ptr %minimizedLocaleID, align 8
  store i8 0, ptr %1, align 1
  invoke void @_ZN6icu_7518CharStringByteSinkC1EPNS_10CharStringE(ptr noundef nonnull align 8 dereferenceable(16) %sink, ptr noundef nonnull %minimizedLocaleID)
          to label %invoke.cont unwind label %lpad

invoke.cont:                                      ; preds = %if.end
  %fullName = getelementptr inbounds i8, ptr %this, i64 40
  %2 = load ptr, ptr %fullName, align 8
  invoke void @ulocimp_minimizeSubtags_75(ptr noundef %2, ptr noundef nonnull align 8 dereferenceable(8) %sink, i1 noundef zeroext %favorScript, ptr noundef nonnull %status)
          to label %invoke.cont4 unwind label %lpad3

invoke.cont4:                                     ; preds = %invoke.cont
  call void @_ZN6icu_7518CharStringByteSinkD1Ev(ptr noundef nonnull align 8 dereferenceable(16) %sink) #20
  %3 = load i32, ptr %status, align 4
  %cmp.i5 = icmp slt i32 %3, 1
  br i1 %cmp.i5, label %if.end9, label %cleanup

lpad:                                             ; preds = %if.end9, %if.end
  %4 = landingpad { ptr, i32 }
          cleanup
  br label %ehcleanup

lpad3:                                            ; preds = %invoke.cont
  %5 = landingpad { ptr, i32 }
          cleanup
  call void @_ZN6icu_7518CharStringByteSinkD1Ev(ptr noundef nonnull align 8 dereferenceable(16) %sink) #20
  br label %ehcleanup

if.end9:                                          ; preds = %invoke.cont4
  %6 = load ptr, ptr %minimizedLocaleID, align 8
  %call13 = invoke noundef nonnull align 8 dereferenceable(217) ptr @_ZN6icu_756Locale4initEPKca(ptr noundef nonnull align 8 dereferenceable(217) %this, ptr noundef %6, i8 noundef signext 0)
          to label %invoke.cont12 unwind label %lpad

invoke.cont12:                                    ; preds = %if.end9
  %fIsBogus.i = getelementptr inbounds i8, ptr %this, i64 216
  %7 = load i8, ptr %fIsBogus.i, align 8
  %tobool16.not = icmp eq i8 %7, 0
  br i1 %tobool16.not, label %cleanup, label %if.then17

if.then17:                                        ; preds = %invoke.cont12
  store i32 1, ptr %status, align 4
  br label %cleanup

cleanup:                                          ; preds = %invoke.cont12, %if.then17, %invoke.cont4
  call void @_ZN6icu_7515MaybeStackArrayIcLi40EED1Ev(ptr noundef nonnull align 8 dereferenceable(53) %minimizedLocaleID) #20
  br label %cleanup.cont

cleanup.cont:                                     ; preds = %entry, %cleanup
  ret void

ehcleanup:                                        ; preds = %lpad3, %lpad
  %.pn = phi { ptr, i32 } [ %4, %lpad ], [ %5, %lpad3 ]
  call void @_ZN6icu_7515MaybeStackArrayIcLi40EED1Ev(ptr noundef nonnull align 8 dereferenceable(53) %minimizedLocaleID) #20
  resume { ptr, i32 } %.pn
}